target datalayout = "e-m:e-p270:32:32-p271:32:32-p272:64:64-i64:64-i128:128-f80:128-n8:16:32:64-S128"
target triple = "x86_64-pc-linux-gnu"

%struct.DICTIONARY_ID = type { i64 }
%"class.std::__shared_count" = type { ptr }
%"class.toku::locktree" = type { ptr, %struct.DICTIONARY_ID, i32, [4 x i8], %"class.toku::comparator", ptr, ptr, ptr, ptr, %"struct.toku::lt_lock_request_info", i64, %"class.toku::range_buffer", i32, i64, i64 }
%"class.toku::comparator" = type <{ ptr, ptr, i8, [7 x i8] }>
%"struct.toku::lt_lock_request_info" = type <{ %"class.toku::omt", %"struct.std::atomic", [7 x i8], %"class.std::shared_ptr.0", i8, [7 x i8], %"struct.toku::lt_counters", %"struct.std::atomic.3", i64, %struct.toku_mutex_t, %struct.toku_cond_t, i8, [7 x i8] }>
%"class.toku::omt" = type { i8, i32, %union.anon }
%union.anon = type { %"struct.toku::omt<toku::lock_request *>::omt_array" }
%"struct.toku::omt<toku::lock_request *>::omt_array" = type { i32, i32, ptr }
%"struct.std::atomic" = type { %"struct.std::__atomic_base" }
%"struct.std::__atomic_base" = type { i8 }
%"class.std::shared_ptr.0" = type { %"class.std::__shared_ptr.1" }
%"class.std::__shared_ptr.1" = type { ptr, %"class.std::__shared_count" }
%"struct.toku::lt_counters" = type { i64, i64, i64, i64, i64 }
%"struct.std::atomic.3" = type { %"struct.std::__atomic_base.4" }
%"struct.std::__atomic_base.4" = type { i64 }
%struct.toku_mutex_t = type { %union.pthread_mutex_t, ptr }
%union.pthread_mutex_t = type { %struct.__pthread_mutex_s }
%struct.__pthread_mutex_s = type { i32, i32, i32, i32, i32, i16, i16, %struct.__pthread_internal_list }
%struct.__pthread_internal_list = type { ptr, ptr }
%struct.toku_cond_t = type { %union.pthread_cond_t, ptr }
%union.pthread_cond_t = type { %struct.__pthread_cond_s }
%struct.__pthread_cond_s = type { %union.__atomic_wide_counter, %union.__atomic_wide_counter, [2 x i32], [2 x i32], i32, i32, [2 x i32] }
%union.__atomic_wide_counter = type { i64 }
%"class.toku::range_buffer" = type <{ %class.memarena, i32, [4 x i8] }>
%class.memarena = type { %"struct.memarena::arena_chunk", ptr, i32, i64, i64 }
%"struct.memarena::arena_chunk" = type { ptr, i64, i64 }
%"class.toku::keyrange" = type <{ %struct.__toku_dbt, %struct.__toku_dbt, ptr, ptr, i8, [7 x i8] }>
%struct.__toku_dbt = type { ptr, i64, i64, i32 }
%"class.toku::concurrent_tree::locked_keyrange" = type { ptr, %"class.toku::keyrange", ptr }

; Function Attrs: mustprogress nounwind uwtable
define linkonce_odr noundef i64 @_Z17toku_unsafe_fetchImET_PS0_(ptr noundef %0) #5 comdat {
  %2 = alloca ptr, align 8
  %3 = alloca i64, align 8
  store ptr %0, ptr %2, align 8, !tbaa !136
  call void @llvm.lifetime.start.p0(i64 8, ptr %3) #18
  %4 = load ptr, ptr %2, align 8, !tbaa !136
  %5 = load i64, ptr %4, align 8, !tbaa !46
  store i64 %5, ptr %3, align 8, !tbaa !46
  %6 = load i64, ptr %3, align 8, !tbaa !46
  call void @llvm.lifetime.end.p0(i64 8, ptr %3) #18
  ret i64 %6
}

; Function Attrs: mustprogress uwtable
define void @_ZN4toku8locktree7sto_endEv(ptr noundef nonnull align 8 dereferenceable(400) %0) #0 align 2 {
  %2 = alloca ptr, align 8
  %3 = alloca i64, align 8
  store ptr %0, ptr %2, align 8, !tbaa !4
  %4 = load ptr, ptr %2, align 8
  call void @llvm.lifetime.start.p0(i64 8, ptr %3) #18
  %5 = getelementptr inbounds nuw %"class.toku::locktree", ptr %4, i32 0, i32 11
  %6 = call noundef i64 @_ZNK4toku12range_buffer17total_memory_sizeEv(ptr noundef nonnull align 8 dereferenceable(60) %5)
  store i64 %6, ptr %3, align 8, !tbaa !46
  %7 = getelementptr inbounds nuw %"class.toku::locktree", ptr %4, i32 0, i32 0
  %8 = load ptr, ptr %7, align 8, !tbaa !15
  %9 = icmp ne ptr %8, null
  br i1 %9, label %10, label %14

10:                                               ; preds = %1
  %11 = getelementptr inbounds nuw %"class.toku::locktree", ptr %4, i32 0, i32 0
  %12 = load ptr, ptr %11, align 8, !tbaa !15
  %13 = load i64, ptr %3, align 8, !tbaa !46
  call void @_ZN4toku16locktree_manager17note_mem_releasedEm(ptr noundef nonnull align 8 dereferenceable(392) %12, i64 noundef %13)
  br label %14

14:                                               ; preds = %10, %1
  %15 = getelementptr inbounds nuw %"class.toku::locktree", ptr %4, i32 0, i32 11
  call void @_ZN4toku12range_buffer7destroyEv(ptr noundef nonnull align 8 dereferenceable(60) %15)
  %16 = getelementptr inbounds nuw %"class.toku::locktree", ptr %4, i32 0, i32 11
  call void @_ZN4toku12range_buffer6createEv(ptr noundef nonnull align 8 dereferenceable(60) %16)
  %17 = getelementptr inbounds nuw %"class.toku::locktree", ptr %4, i32 0, i32 10
  store i64 0, ptr %17, align 8, !tbaa !50
  call void @llvm.lifetime.end.p0(i64 8, ptr %3) #18
  ret void
}

; Function Attrs: mustprogress uwtable
define linkonce_odr noundef i64 @_Z17toku_unsafe_fetchImET_RS0_(ptr noundef nonnull align 8 dereferenceable(8) %0) #0 comdat {
  %2 = alloca ptr, align 8
  store ptr %0, ptr %2, align 8, !tbaa !136
  %3 = load ptr, ptr %2, align 8, !tbaa !136
  %4 = call noundef i64 @_Z17toku_unsafe_fetchImET_PS0_(ptr noundef %3)
  ret i64 %4
}

; Function Attrs: mustprogress uwtable
define noundef zeroext i1 @_ZN4toku8locktree15sto_try_releaseEm(ptr noundef nonnull align 8 dereferenceable(400) %0, i64 noundef %1) #0 align 2 {
  %3 = alloca ptr, align 8
  %4 = alloca i64, align 8
  %5 = alloca i8, align 1
  %6 = alloca %"class.toku::concurrent_tree::locked_keyrange", align 8
  store ptr %0, ptr %3, align 8, !tbaa !4
  store i64 %1, ptr %4, align 8, !tbaa !46
  %7 = load ptr, ptr %3, align 8
  call void @llvm.lifetime.start.p0(i64 1, ptr %5) #18
  store i8 0, ptr %5, align 1, !tbaa !67
  %8 = getelementptr inbounds nuw %"class.toku::locktree", ptr %7, i32 0, i32 10
  %9 = call noundef i64 @_Z17toku_unsafe_fetchImET_RS0_(ptr noundef nonnull align 8 dereferenceable(8) %8)
  %10 = icmp ne i64 %9, 0
  br i1 %10, label %11, label %22

11:                                               ; preds = %2
  call void @llvm.lifetime.start.p0(i64 104, ptr %6) #18
  %12 = getelementptr inbounds nuw %"class.toku::locktree", ptr %7, i32 0, i32 7
  %13 = load ptr, ptr %12, align 8, !tbaa !49
  call void @_ZN4toku15concurrent_tree15locked_keyrange7prepareEPS0_(ptr noundef nonnull align 8 dereferenceable(104) %6, ptr noundef %13)
  %14 = getelementptr inbounds nuw %"class.toku::locktree", ptr %7, i32 0, i32 10
  %15 = load i64, ptr %14, align 8, !tbaa !50
  %16 = icmp ne i64 %15, 0
  br i1 %16, label %17, label %21

17:                                               ; preds = %11
  %18 = getelementptr inbounds nuw %"class.toku::locktree", ptr %7, i32 0, i32 7
  %19 = load ptr, ptr %18, align 8, !tbaa !49
  %20 = call noundef zeroext i1 @_ZN4toku15concurrent_tree8is_emptyEv(ptr noundef nonnull align 8 dereferenceable(208) %19)
  call void @_ZN4toku8locktree7sto_endEv(ptr noundef nonnull align 8 dereferenceable(400) %7)
  store i8 1, ptr %5, align 1, !tbaa !67
  br label %21

21:                                               ; preds = %17, %11
  call void @_ZN4toku15concurrent_tree15locked_keyrange7releaseEv(ptr noundef nonnull align 8 dereferenceable(104) %6)
  call void @llvm.lifetime.end.p0(i64 104, ptr %6) #18
  br label %22

22:                                               ; preds = %21, %2
  %23 = load i8, ptr %5, align 1, !tbaa !67, !range !68, !noundef !69
  %24 = trunc i8 %23 to i1
  call void @llvm.lifetime.end.p0(i64 1, ptr %5) #18
  ret i1 %24
}