; Function Attrs: mustprogress uwtable
define noundef zeroext i1 @_ZN4toku8locktree15sto_try_releaseEm(ptr noundef nonnull align 8 dereferenceable(400) %0, i64 %1) local_unnamed_addr #0 align 2 {
  %3 = alloca %"class.toku::concurrent_tree::locked_keyrange", align 8
  %4 = getelementptr inbounds nuw i8, ptr %0, i64 304
  %5 = load i64, ptr %4, align 8, !tbaa !38
  %.not = icmp eq i64 %5, 0
  br i1 %.not, label %18, label %6

6:                                                ; preds = %2
  call void @llvm.lifetime.start.p0(i64 104, ptr nonnull %3) #21
  %7 = getelementptr inbounds nuw i8, ptr %0, i64 64
  %8 = load ptr, ptr %7, align 8, !tbaa !44
  call void @_ZN4toku15concurrent_tree15locked_keyrange7prepareEPS0_(ptr noundef nonnull align 8 dereferenceable(104) %3, ptr noundef %8)
  %9 = load i64, ptr %4, align 8, !tbaa !45
  %.not1 = icmp ne i64 %9, 0
  br i1 %.not1, label %10, label %17

10:                                               ; preds = %6
  %11 = load ptr, ptr %7, align 8, !tbaa !44
  %12 = call noundef zeroext i1 @_ZN4toku15concurrent_tree8is_emptyEv(ptr noundef nonnull align 8 dereferenceable(208) %11)
  %13 = getelementptr inbounds nuw i8, ptr %0, i64 312
  %14 = call noundef i64 @_ZNK4toku12range_buffer17total_memory_sizeEv(ptr noundef nonnull align 8 dereferenceable(60) %13)
  %15 = load ptr, ptr %0, align 8, !tbaa !4
  %.not.i = icmp eq ptr %15, null
  br i1 %.not.i, label %_ZN4toku8locktree7sto_endEv.exit, label %16

16:                                               ; preds = %10
  call void @_ZN4toku16locktree_manager17note_mem_releasedEm(ptr noundef nonnull align 8 dereferenceable(392) %15, i64 noundef %14)
  br label %_ZN4toku8locktree7sto_endEv.exit

_ZN4toku8locktree7sto_endEv.exit:                 ; preds = %10, %16
  call void @_ZN4toku12range_buffer7destroyEv(ptr noundef nonnull align 8 dereferenceable(60) %13)
  call void @_ZN4toku12range_buffer6createEv(ptr noundef nonnull align 8 dereferenceable(60) %13)
  store i64 0, ptr %4, align 8, !tbaa !45
  br label %17

17:                                               ; preds = %_ZN4toku8locktree7sto_endEv.exit, %6
  call void @_ZN4toku15concurrent_tree15locked_keyrange7releaseEv(ptr noundef nonnull align 8 dereferenceable(104) %3)
  call void @llvm.lifetime.end.p0(i64 104, ptr nonnull %3) #21
  br label %18

18:                                               ; preds = %17, %2
  %.0 = phi i1 [ %.not1, %17 ], [ false, %2 ]
  ret i1 %.0
}